; Function Attrs: mustprogress uwtable
define void @_ZN3gmx24TrajectoryAnalysisModule17finishFrameSerialEi(ptr noundef nonnull readonly align 8 captures(none) dereferenceable(16) %0, i32 noundef %1) local_unnamed_addr #2 align 2 personality ptr @__gxx_personality_v0 {
  %3 = getelementptr inbounds nuw i8, ptr %0, i64 8
  %4 = load ptr, ptr %3, align 8, !tbaa !25
  %5 = getelementptr inbounds nuw i8, ptr %4, i64 96
  %6 = load ptr, ptr %5, align 8, !tbaa !20
  %7 = getelementptr inbounds nuw i8, ptr %4, i64 80
  %.not7 = icmp eq ptr %6, %7
  br i1 %.not7, label %._crit_edge, label %.lr.ph

.lr.ph:                                           ; preds = %2, %.lr.ph
  %.sroa.04.08 = phi ptr [ %10, %.lr.ph ], [ %6, %2 ]
  %8 = getelementptr inbounds nuw i8, ptr %.sroa.04.08, i64 64
  %9 = load ptr, ptr %8, align 8, !tbaa !27
  tail call void @_ZN3gmx12AnalysisData17finishFrameSerialEi(ptr noundef nonnull align 8 dereferenceable(24) %9, i32 noundef %1)
  %10 = tail call noundef ptr @_ZSt18_Rb_tree_incrementPKSt18_Rb_tree_node_base(ptr noundef %.sroa.04.08) #30
  %11 = load ptr, ptr %3, align 8, !tbaa !25
  %12 = getelementptr inbounds nuw i8, ptr %11, i64 80
  %.not = icmp eq ptr %10, %12
  br i1 %.not, label %._crit_edge, label %.lr.ph, !llvm.loop !143

._crit_edge:                                      ; preds = %.lr.ph, %2
  ret void
}